target datalayout = "e-m:e-p270:32:32-p271:32:32-p272:64:64-i64:64-i128:128-f80:128-n8:16:32:64-S128"
target triple = "x86_64-unknown-linux-gnu"

%"class.std::__cxx11::basic_string" = type { %"struct.std::__cxx11::basic_string<char>::_Alloc_hider", i64, %union.anon.21 }
%"struct.std::__cxx11::basic_string<char>::_Alloc_hider" = type { ptr }
%union.anon.21 = type { i64, [8 x i8] }
%"class.OpenImageIO_v2_6_0::Filesystem::IOProxy" = type { ptr, %"class.std::__cxx11::basic_string", i64, i32, %"class.std::__cxx11::basic_string" }

@.str.45 = private unnamed_addr constant [5 x i8] c"8BPS\00", align 1

; Function Attrs: mustprogress nounwind uwtable
define hidden noundef zeroext i1 @_ZN18OpenImageIO_v2_6_08PSDInput18validate_signatureEPKc(ptr noundef %signature) #4 align 2 {
entry:
  %signature.addr = alloca ptr, align 8
  store ptr %signature, ptr %signature.addr, align 8
  %0 = load ptr, ptr %signature.addr, align 8
  %call = call i32 @memcmp(ptr noundef %0, ptr noundef @.str.45, i64 noundef 4) #19
  %cmp = icmp eq i32 %call, 0
  ret i1 %cmp
}

; Function Attrs: mustprogress nounwind uwtable
define linkonce_odr noundef i32 @_ZNK18OpenImageIO_v2_6_010Filesystem7IOProxy4modeEv(ptr noundef nonnull align 8 dereferenceable(88) %this) #4 comdat align 2 {
entry:
  %this.addr = alloca ptr, align 8
  store ptr %this, ptr %this.addr, align 8
  %this1 = load ptr, ptr %this.addr, align 8
  %m_mode = getelementptr inbounds %"class.OpenImageIO_v2_6_0::Filesystem::IOProxy", ptr %this1, i32 0, i32 3
  %0 = load i32, ptr %m_mode, align 8
  ret i32 %0
}

; Function Attrs: mustprogress uwtable
define hidden noundef zeroext i1 @_ZNK18OpenImageIO_v2_6_08PSDInput10valid_fileEPNS_10Filesystem7IOProxyE(ptr noundef nonnull align 8 dereferenceable(840) %this, ptr noundef %ioproxy) unnamed_addr #6 align 2 {
entry:
  %retval = alloca i1, align 1
  %this.addr = alloca ptr, align 8
  %ioproxy.addr = alloca ptr, align 8
  %signature = alloca [4 x i8], align 1
  %numRead = alloca i64, align 8
  store ptr %this, ptr %this.addr, align 8
  store ptr %ioproxy, ptr %ioproxy.addr, align 8
  %0 = load ptr, ptr %ioproxy.addr, align 8
  %tobool = icmp ne ptr %0, null
  br i1 %tobool, label %lor.lhs.false, label %if.then

lor.lhs.false:                                    ; preds = %entry
  %1 = load ptr, ptr %ioproxy.addr, align 8
  %call = call noundef i32 @_ZNK18OpenImageIO_v2_6_010Filesystem7IOProxy4modeEv(ptr noundef nonnull align 8 dereferenceable(88) %1)
  %cmp = icmp ne i32 %call, 114
  br i1 %cmp, label %if.then, label %if.end

if.then:                                          ; preds = %lor.lhs.false, %entry
  store i1 false, ptr %retval, align 1
  br label %return

if.end:                                           ; preds = %lor.lhs.false
  call void @llvm.memset.p0.i64(ptr align 1 %signature, i8 0, i64 4, i1 false)
  %2 = load ptr, ptr %ioproxy.addr, align 8
  %arraydecay = getelementptr inbounds [4 x i8], ptr %signature, i64 0, i64 0
  %vtable = load ptr, ptr %2, align 8
  %vfn = getelementptr inbounds ptr, ptr %vtable, i64 9
  %3 = load ptr, ptr %vfn, align 8
  %call2 = call noundef i64 %3(ptr noundef nonnull align 8 dereferenceable(88) %2, ptr noundef %arraydecay, i64 noundef 4, i64 noundef 0)
  store i64 %call2, ptr %numRead, align 8
  %4 = load i64, ptr %numRead, align 8
  %cmp3 = icmp eq i64 %4, 4
  br i1 %cmp3, label %land.rhs, label %land.end

land.rhs:                                         ; preds = %if.end
  %arraydecay4 = getelementptr inbounds [4 x i8], ptr %signature, i64 0, i64 0
  %call5 = call noundef zeroext i1 @_ZN18OpenImageIO_v2_6_08PSDInput18validate_signatureEPKc(ptr noundef %arraydecay4)
  br label %land.end

land.end:                                         ; preds = %land.rhs, %if.end
  %5 = phi i1 [ false, %if.end ], [ %call5, %land.rhs ]
  store i1 %5, ptr %retval, align 1
  br label %return

return:                                           ; preds = %land.end, %if.then
  %6 = load i1, ptr %retval, align 1
  ret i1 %6
}